target datalayout = "e-m:e-p270:32:32-p271:32:32-p272:64:64-i64:64-i128:128-f80:128-n8:16:32:64-S128"
target triple = "x86_64-pc-linux-gnu"

%struct.pairingheap_node = type { ptr, ptr, ptr }
%struct.SnapshotData = type { i32, i32, i32, ptr, i32, ptr, i32, i8, i8, i8, i32, i32, ptr, i32, i32, %struct.pairingheap_node, i64 }
%struct.ActiveSnapshotElt = type { ptr, i32, ptr }

@CurrentSnapshot = internal global ptr null, align 8
@SecondarySnapshot = internal global ptr null, align 8
@ActiveSnapshot = internal global ptr null, align 8
@TopTransactionContext = external global ptr, align 8

; Function Attrs: nounwind uwtable
define internal ptr @CopySnapshot(ptr noundef %0) #0 {
  %2 = alloca ptr, align 8
  %3 = alloca ptr, align 8
  %4 = alloca i64, align 8
  %5 = alloca i64, align 8
  store ptr %0, ptr %2, align 8
  call void @llvm.lifetime.start.p0(i64 8, ptr %3) #14
  call void @llvm.lifetime.start.p0(i64 8, ptr %4) #14
  call void @llvm.lifetime.start.p0(i64 8, ptr %5) #14
  %6 = load ptr, ptr %2, align 8
  %7 = getelementptr inbounds nuw %struct.SnapshotData, ptr %6, i32 0, i32 4
  %8 = load i32, ptr %7, align 8
  %9 = zext i32 %8 to i64
  %10 = mul i64 %9, 4
  %11 = add i64 104, %10
  store i64 %11, ptr %4, align 8
  store i64 %11, ptr %5, align 8
  %12 = load ptr, ptr %2, align 8
  %13 = getelementptr inbounds nuw %struct.SnapshotData, ptr %12, i32 0, i32 6
  %14 = load i32, ptr %13, align 8
  %15 = icmp sgt i32 %14, 0
  br i1 %15, label %16, label %24

16:                                               ; preds = %1
  %17 = load ptr, ptr %2, align 8
  %18 = getelementptr inbounds nuw %struct.SnapshotData, ptr %17, i32 0, i32 6
  %19 = load i32, ptr %18, align 8
  %20 = sext i32 %19 to i64
  %21 = mul i64 %20, 4
  %22 = load i64, ptr %5, align 8
  %23 = add i64 %22, %21
  store i64 %23, ptr %5, align 8
  br label %24

24:                                               ; preds = %16, %1
  %25 = load ptr, ptr @TopTransactionContext, align 8
  %26 = load i64, ptr %5, align 8
  %27 = call ptr @MemoryContextAlloc(ptr noundef %25, i64 noundef %26)
  store ptr %27, ptr %3, align 8
  %28 = load ptr, ptr %3, align 8
  %29 = load ptr, ptr %2, align 8
  call void @llvm.memcpy.p0.p0.i64(ptr align 8 %28, ptr align 8 %29, i64 104, i1 false)
  %30 = load ptr, ptr %3, align 8
  %31 = getelementptr inbounds nuw %struct.SnapshotData, ptr %30, i32 0, i32 14
  store i32 0, ptr %31, align 4
  %32 = load ptr, ptr %3, align 8
  %33 = getelementptr inbounds nuw %struct.SnapshotData, ptr %32, i32 0, i32 13
  store i32 0, ptr %33, align 8
  %34 = load ptr, ptr %3, align 8
  %35 = getelementptr inbounds nuw %struct.SnapshotData, ptr %34, i32 0, i32 9
  store i8 1, ptr %35, align 2
  %36 = load ptr, ptr %3, align 8
  %37 = getelementptr inbounds nuw %struct.SnapshotData, ptr %36, i32 0, i32 16
  store i64 0, ptr %37, align 8
  %38 = load ptr, ptr %2, align 8
  %39 = getelementptr inbounds nuw %struct.SnapshotData, ptr %38, i32 0, i32 4
  %40 = load i32, ptr %39, align 8
  %41 = icmp ugt i32 %40, 0
  br i1 %41, label %42, label %58

42:                                               ; preds = %24
  %43 = load ptr, ptr %3, align 8
  %44 = getelementptr inbounds %struct.SnapshotData, ptr %43, i64 1
  %45 = load ptr, ptr %3, align 8
  %46 = getelementptr inbounds nuw %struct.SnapshotData, ptr %45, i32 0, i32 3
  store ptr %44, ptr %46, align 8
  %47 = load ptr, ptr %3, align 8
  %48 = getelementptr inbounds nuw %struct.SnapshotData, ptr %47, i32 0, i32 3
  %49 = load ptr, ptr %48, align 8
  %50 = load ptr, ptr %2, align 8
  %51 = getelementptr inbounds nuw %struct.SnapshotData, ptr %50, i32 0, i32 3
  %52 = load ptr, ptr %51, align 8
  %53 = load ptr, ptr %2, align 8
  %54 = getelementptr inbounds nuw %struct.SnapshotData, ptr %53, i32 0, i32 4
  %55 = load i32, ptr %54, align 8
  %56 = zext i32 %55 to i64
  %57 = mul i64 %56, 4
  call void @llvm.memcpy.p0.p0.i64(ptr align 4 %49, ptr align 4 %52, i64 %57, i1 false)
  br label %61

58:                                               ; preds = %24
  %59 = load ptr, ptr %3, align 8
  %60 = getelementptr inbounds nuw %struct.SnapshotData, ptr %59, i32 0, i32 3
  store ptr null, ptr %60, align 8
  br label %61

61:                                               ; preds = %58, %42
  %62 = load ptr, ptr %2, align 8
  %63 = getelementptr inbounds nuw %struct.SnapshotData, ptr %62, i32 0, i32 6
  %64 = load i32, ptr %63, align 8
  %65 = icmp sgt i32 %64, 0
  br i1 %65, label %66, label %93

66:                                               ; preds = %61
  %67 = load ptr, ptr %2, align 8
  %68 = getelementptr inbounds nuw %struct.SnapshotData, ptr %67, i32 0, i32 7
  %69 = load i8, ptr %68, align 4, !range !4, !noundef !5
  %70 = trunc i8 %69 to i1
  br i1 %70, label %71, label %76

71:                                               ; preds = %66
  %72 = load ptr, ptr %2, align 8
  %73 = getelementptr inbounds nuw %struct.SnapshotData, ptr %72, i32 0, i32 8
  %74 = load i8, ptr %73, align 1, !range !4, !noundef !5
  %75 = trunc i8 %74 to i1
  br i1 %75, label %76, label %93

76:                                               ; preds = %71, %66
  %77 = load ptr, ptr %3, align 8
  %78 = load i64, ptr %4, align 8
  %79 = getelementptr inbounds nuw i8, ptr %77, i64 %78
  %80 = load ptr, ptr %3, align 8
  %81 = getelementptr inbounds nuw %struct.SnapshotData, ptr %80, i32 0, i32 5
  store ptr %79, ptr %81, align 8
  %82 = load ptr, ptr %3, align 8
  %83 = getelementptr inbounds nuw %struct.SnapshotData, ptr %82, i32 0, i32 5
  %84 = load ptr, ptr %83, align 8
  %85 = load ptr, ptr %2, align 8
  %86 = getelementptr inbounds nuw %struct.SnapshotData, ptr %85, i32 0, i32 5
  %87 = load ptr, ptr %86, align 8
  %88 = load ptr, ptr %2, align 8
  %89 = getelementptr inbounds nuw %struct.SnapshotData, ptr %88, i32 0, i32 6
  %90 = load i32, ptr %89, align 8
  %91 = sext i32 %90 to i64
  %92 = mul i64 %91, 4
  call void @llvm.memcpy.p0.p0.i64(ptr align 4 %84, ptr align 4 %87, i64 %92, i1 false)
  br label %96

93:                                               ; preds = %71, %61
  %94 = load ptr, ptr %3, align 8
  %95 = getelementptr inbounds nuw %struct.SnapshotData, ptr %94, i32 0, i32 5
  store ptr null, ptr %95, align 8
  br label %96

96:                                               ; preds = %93, %76
  %97 = load ptr, ptr %3, align 8
  call void @llvm.lifetime.end.p0(i64 8, ptr %5) #14
  call void @llvm.lifetime.end.p0(i64 8, ptr %4) #14
  call void @llvm.lifetime.end.p0(i64 8, ptr %3) #14
  ret ptr %97
}

; Function Attrs: nounwind uwtable
define dso_local void @PushActiveSnapshotWithLevel(ptr noundef %0, i32 noundef %1) #0 {
  %3 = alloca ptr, align 8
  %4 = alloca i32, align 4
  %5 = alloca ptr, align 8
  store ptr %0, ptr %3, align 8
  store i32 %1, ptr %4, align 4
  call void @llvm.lifetime.start.p0(i64 8, ptr %5) #14
  %6 = load ptr, ptr @TopTransactionContext, align 8
  %7 = call ptr @MemoryContextAlloc(ptr noundef %6, i64 noundef 24)
  store ptr %7, ptr %5, align 8
  %8 = load ptr, ptr %3, align 8
  %9 = load ptr, ptr @CurrentSnapshot, align 8
  %10 = icmp eq ptr %8, %9
  br i1 %10, label %20, label %11

11:                                               ; preds = %2
  %12 = load ptr, ptr %3, align 8
  %13 = load ptr, ptr @SecondarySnapshot, align 8
  %14 = icmp eq ptr %12, %13
  br i1 %14, label %20, label %15

15:                                               ; preds = %11
  %16 = load ptr, ptr %3, align 8
  %17 = getelementptr inbounds nuw %struct.SnapshotData, ptr %16, i32 0, i32 9
  %18 = load i8, ptr %17, align 2, !range !4, !noundef !5
  %19 = trunc i8 %18 to i1
  br i1 %19, label %25, label %20

20:                                               ; preds = %15, %11, %2
  %21 = load ptr, ptr %3, align 8
  %22 = call ptr @CopySnapshot(ptr noundef %21)
  %23 = load ptr, ptr %5, align 8
  %24 = getelementptr inbounds nuw %struct.ActiveSnapshotElt, ptr %23, i32 0, i32 0
  store ptr %22, ptr %24, align 8
  br label %29

25:                                               ; preds = %15
  %26 = load ptr, ptr %3, align 8
  %27 = load ptr, ptr %5, align 8
  %28 = getelementptr inbounds nuw %struct.ActiveSnapshotElt, ptr %27, i32 0, i32 0
  store ptr %26, ptr %28, align 8
  br label %29

29:                                               ; preds = %25, %20
  %30 = load ptr, ptr @ActiveSnapshot, align 8
  %31 = load ptr, ptr %5, align 8
  %32 = getelementptr inbounds nuw %struct.ActiveSnapshotElt, ptr %31, i32 0, i32 2
  store ptr %30, ptr %32, align 8
  %33 = load i32, ptr %4, align 4
  %34 = load ptr, ptr %5, align 8
  %35 = getelementptr inbounds nuw %struct.ActiveSnapshotElt, ptr %34, i32 0, i32 1
  store i32 %33, ptr %35, align 8
  %36 = load ptr, ptr %5, align 8
  %37 = getelementptr inbounds nuw %struct.ActiveSnapshotElt, ptr %36, i32 0, i32 0
  %38 = load ptr, ptr %37, align 8
  %39 = getelementptr inbounds nuw %struct.SnapshotData, ptr %38, i32 0, i32 13
  %40 = load i32, ptr %39, align 8
  %41 = add i32 %40, 1
  store i32 %41, ptr %39, align 8
  %42 = load ptr, ptr %5, align 8
  store ptr %42, ptr @ActiveSnapshot, align 8
  call void @llvm.lifetime.end.p0(i64 8, ptr %5) #14
  ret void
}