; Function Attrs: nounwind uwtable
define dso_local void @PushActiveSnapshotWithLevel(ptr noundef %0, i32 noundef %1) local_unnamed_addr #0 {
  %3 = load ptr, ptr @TopTransactionContext, align 8
  %4 = tail call ptr @MemoryContextAlloc(ptr noundef %3, i64 noundef 24) #18
  %5 = load ptr, ptr @CurrentSnapshot, align 8
  %6 = icmp eq ptr %0, %5
  %7 = load ptr, ptr @SecondarySnapshot, align 8
  %8 = icmp eq ptr %0, %7
  %or.cond = select i1 %6, i1 true, i1 %8
  br i1 %or.cond, label %13, label %9

9:                                                ; preds = %2
  %10 = getelementptr inbounds nuw i8, ptr %0, i64 46
  %11 = load i8, ptr %10, align 2, !range !4, !noundef !5
  %12 = trunc nuw i8 %11 to i1
  br i1 %12, label %CopySnapshot.exit, label %13

13:                                               ; preds = %9, %2
  %14 = getelementptr inbounds nuw i8, ptr %0, i64 24
  %15 = load i32, ptr %14, align 8
  %16 = zext i32 %15 to i64
  %17 = shl nuw nsw i64 %16, 2
  %18 = add nuw nsw i64 %17, 104
  %19 = getelementptr inbounds nuw i8, ptr %0, i64 40
  %20 = load i32, ptr %19, align 8
  %21 = icmp sgt i32 %20, 0
  %22 = zext nneg i32 %20 to i64
  %23 = add nuw nsw i64 %22, %16
  %24 = shl nuw nsw i64 %23, 2
  %25 = add nuw nsw i64 %24, 104
  %.0.i = select i1 %21, i64 %25, i64 %18
  %26 = load ptr, ptr @TopTransactionContext, align 8
  %27 = tail call ptr @MemoryContextAlloc(ptr noundef %26, i64 noundef %.0.i) #18
  tail call void @llvm.memcpy.p0.p0.i64(ptr noundef nonnull align 8 dereferenceable(104) %27, ptr noundef nonnull readonly align 8 dereferenceable(104) %0, i64 96, i1 false)
  %28 = getelementptr inbounds nuw i8, ptr %27, i64 68
  store i32 0, ptr %28, align 4
  %29 = getelementptr inbounds nuw i8, ptr %27, i64 64
  store i32 0, ptr %29, align 8
  %30 = getelementptr inbounds nuw i8, ptr %27, i64 46
  store i8 1, ptr %30, align 2
  %31 = getelementptr inbounds nuw i8, ptr %27, i64 96
  store i64 0, ptr %31, align 8
  %32 = load i32, ptr %14, align 8
  %.not.i = icmp eq i32 %32, 0
  br i1 %.not.i, label %41, label %33

33:                                               ; preds = %13
  %34 = getelementptr inbounds nuw i8, ptr %27, i64 104
  %35 = getelementptr inbounds nuw i8, ptr %27, i64 16
  store ptr %34, ptr %35, align 8
  %36 = getelementptr inbounds nuw i8, ptr %0, i64 16
  %37 = load ptr, ptr %36, align 8
  %38 = load i32, ptr %14, align 8
  %39 = zext i32 %38 to i64
  %40 = shl nuw nsw i64 %39, 2
  tail call void @llvm.memcpy.p0.p0.i64(ptr nonnull align 4 %34, ptr align 4 %37, i64 %40, i1 false)
  br label %43

41:                                               ; preds = %13
  %42 = getelementptr inbounds nuw i8, ptr %27, i64 16
  store ptr null, ptr %42, align 8
  br label %43

43:                                               ; preds = %41, %33
  %44 = load i32, ptr %19, align 8
  %45 = icmp sgt i32 %44, 0
  br i1 %45, label %46, label %62

46:                                               ; preds = %43
  %47 = getelementptr inbounds nuw i8, ptr %0, i64 44
  %48 = load i8, ptr %47, align 4, !range !4, !noundef !5
  %49 = trunc nuw i8 %48 to i1
  br i1 %49, label %50, label %54

50:                                               ; preds = %46
  %51 = getelementptr inbounds nuw i8, ptr %0, i64 45
  %52 = load i8, ptr %51, align 1, !range !4, !noundef !5
  %53 = trunc nuw i8 %52 to i1
  br i1 %53, label %54, label %62

54:                                               ; preds = %50, %46
  %55 = getelementptr inbounds nuw i8, ptr %27, i64 %18
  %56 = getelementptr inbounds nuw i8, ptr %27, i64 32
  store ptr %55, ptr %56, align 8
  %57 = getelementptr inbounds nuw i8, ptr %0, i64 32
  %58 = load ptr, ptr %57, align 8
  %59 = load i32, ptr %19, align 8
  %60 = sext i32 %59 to i64
  %61 = shl nsw i64 %60, 2
  tail call void @llvm.memcpy.p0.p0.i64(ptr nonnull align 4 %55, ptr align 4 %58, i64 %61, i1 false)
  br label %CopySnapshot.exit

62:                                               ; preds = %50, %43
  %63 = getelementptr inbounds nuw i8, ptr %27, i64 32
  store ptr null, ptr %63, align 8
  br label %CopySnapshot.exit

CopySnapshot.exit:                                ; preds = %62, %54, %9
  %storemerge = phi ptr [ %0, %9 ], [ %27, %54 ], [ %27, %62 ]
  store ptr %storemerge, ptr %4, align 8
  %64 = load ptr, ptr @ActiveSnapshot, align 8
  %65 = getelementptr inbounds nuw i8, ptr %4, i64 16
  store ptr %64, ptr %65, align 8
  %66 = getelementptr inbounds nuw i8, ptr %4, i64 8
  store i32 %1, ptr %66, align 8
  %67 = getelementptr inbounds nuw i8, ptr %storemerge, i64 64
  %68 = load i32, ptr %67, align 8
  %69 = add i32 %68, 1
  store i32 %69, ptr %67, align 8
  store ptr %4, ptr @ActiveSnapshot, align 8
  ret void
}